; Function Attrs: nofree norecurse nosync nounwind memory(read, argmem: readwrite, inaccessiblemem: none) uwtable
define dso_local void @cmsysMD5_FinalizeHex(ptr noundef %0, ptr noundef writeonly captures(none) %1) local_unnamed_addr #8 {
  %3 = alloca [16 x i8], align 16
  call void @llvm.lifetime.start.p0(i64 16, ptr nonnull %3) #14
  call void @cmsysMD5_Finalize(ptr noundef %0, ptr noundef nonnull %3)
  br label %4

4:                                                ; preds = %4, %2
  %indvars.iv.i = phi i64 [ 0, %2 ], [ %indvars.iv.next.i, %4 ]
  %.089.i = phi ptr [ %1, %2 ], [ %16, %4 ]
  %5 = getelementptr inbounds nuw i8, ptr %3, i64 %indvars.iv.i
  %6 = load i8, ptr %5, align 1, !tbaa !10
  %7 = lshr i8 %6, 4
  %8 = zext nneg i8 %7 to i64
  %9 = getelementptr inbounds nuw [16 x i8], ptr @cmsysMD5_DigestToHex.hex, i64 0, i64 %8
  %10 = load i8, ptr %9, align 1, !tbaa !10
  %11 = getelementptr inbounds nuw i8, ptr %.089.i, i64 1
  store i8 %10, ptr %.089.i, align 1, !tbaa !10
  %12 = and i8 %6, 15
  %13 = zext nneg i8 %12 to i64
  %14 = getelementptr inbounds nuw [16 x i8], ptr @cmsysMD5_DigestToHex.hex, i64 0, i64 %13
  %15 = load i8, ptr %14, align 1, !tbaa !10
  %16 = getelementptr inbounds nuw i8, ptr %.089.i, i64 2
  store i8 %15, ptr %11, align 1, !tbaa !10
  %indvars.iv.next.i = add nuw nsw i64 %indvars.iv.i, 1
  %exitcond.not.i = icmp eq i64 %indvars.iv.next.i, 16
  br i1 %exitcond.not.i, label %cmsysMD5_DigestToHex.exit, label %4, !llvm.loop !13

cmsysMD5_DigestToHex.exit:                        ; preds = %4
  call void @llvm.lifetime.end.p0(i64 16, ptr nonnull %3) #14
  ret void
}